target datalayout = "e-m:e-p270:32:32-p271:32:32-p272:64:64-i64:64-i128:128-f80:128-n8:16:32:64-S128"
target triple = "x86_64-pc-linux-gnu"

%"struct.duckdb_zstd::ZSTD_customMem" = type { ptr, ptr, ptr }
%"struct.duckdb_zstd::ZSTD_DCtx_s" = type { ptr, ptr, ptr, ptr, %"struct.duckdb_zstd::ZSTD_entropyDTables_t", [640 x i32], ptr, ptr, ptr, ptr, i64, %"struct.duckdb_zstd::ZSTD_frameHeader", i64, i64, i32, i32, i32, i32, %"struct.duckdb_zstd::XXH64_state_s", i64, i32, i32, i32, ptr, %"struct.duckdb_zstd::ZSTD_customMem", i64, i64, i64, i32, i32, ptr, ptr, i32, i32, i32, ptr, i32, i32, i32, i32, ptr, i64, i64, i64, ptr, i64, i64, i64, i64, i32, i32, i32, %"struct.duckdb_zstd::ZSTD_outBuffer_s", ptr, ptr, i32, [65568 x i8], [18 x i8], i64, i64 }
%"struct.duckdb_zstd::ZSTD_entropyDTables_t" = type { [513 x %"struct.duckdb_zstd::ZSTD_seqSymbol"], [257 x %"struct.duckdb_zstd::ZSTD_seqSymbol"], [513 x %"struct.duckdb_zstd::ZSTD_seqSymbol"], [4097 x i32], [3 x i32], [157 x i32] }
%"struct.duckdb_zstd::ZSTD_seqSymbol" = type { i16, i8, i8, i32 }
%"struct.duckdb_zstd::ZSTD_frameHeader" = type { i64, i64, i32, i32, i32, i32, i32, i32, i32 }
%"struct.duckdb_zstd::XXH64_state_s" = type { i64, i64, i64, i64, i64, [4 x i64], i32, [2 x i32] }
%"struct.duckdb_zstd::ZSTD_outBuffer_s" = type { ptr, i64, i64 }

@_ZN11duckdb_zstdL13repStartValueE = internal constant [3 x i32] [i32 1, i32 4, i32 8], align 4

; Function Attrs: mustprogress nounwind uwtable
define internal noundef i64 @_ZN11duckdb_zstdL24ZSTD_startingInputLengthENS_13ZSTD_format_eE(i32 noundef %0) #2 {
  %2 = alloca i32, align 4
  %3 = alloca i64, align 8
  store i32 %0, ptr %2, align 4, !tbaa !55
  call void @llvm.lifetime.start.p0(i64 8, ptr %3) #12
  %4 = load i32, ptr %2, align 4, !tbaa !55
  %5 = icmp eq i32 %4, 0
  %6 = select i1 %5, i32 5, i32 1
  %7 = sext i32 %6 to i64
  store i64 %7, ptr %3, align 8, !tbaa !34
  %8 = load i64, ptr %3, align 8, !tbaa !34
  call void @llvm.lifetime.end.p0(i64 8, ptr %3) #12
  ret i64 %8
}

; Function Attrs: mustprogress nounwind uwtable
define internal noundef i32 @_ZN11duckdb_zstdL11ERR_isErrorEm(i64 noundef %0) #2 {
  %2 = alloca i64, align 8
  store i64 %0, ptr %2, align 8, !tbaa !34
  %3 = load i64, ptr %2, align 8, !tbaa !34
  %4 = icmp ugt i64 %3, -120
  %5 = zext i1 %4 to i32
  ret i32 %5
}

; Function Attrs: mustprogress uwtable
define noundef i64 @_ZN11duckdb_zstd20ZSTD_decompressBeginEPNS_11ZSTD_DCtx_sE(ptr noundef %0) #0 {
  %2 = alloca ptr, align 8
  store ptr %0, ptr %2, align 8, !tbaa !3
  %3 = icmp ne ptr @_ZN11duckdb_zstd27ZSTD_trace_decompress_beginEPKNS_11ZSTD_DCtx_sE, null
  br i1 %3, label %4, label %7

4:                                                ; preds = %1
  %5 = load ptr, ptr %2, align 8, !tbaa !3
  %6 = call noundef i64 @_ZN11duckdb_zstd27ZSTD_trace_decompress_beginEPKNS_11ZSTD_DCtx_sE(ptr noundef %5)
  br label %8

7:                                                ; preds = %1
  br label %8

8:                                                ; preds = %7, %4
  %9 = phi i64 [ %6, %4 ], [ 0, %7 ]
  %10 = load ptr, ptr %2, align 8, !tbaa !3
  %11 = getelementptr inbounds nuw %"struct.duckdb_zstd::ZSTD_DCtx_s", ptr %10, i32 0, i32 59
  store i64 %9, ptr %11, align 8, !tbaa !100
  %12 = load ptr, ptr %2, align 8, !tbaa !3
  %13 = getelementptr inbounds nuw %"struct.duckdb_zstd::ZSTD_DCtx_s", ptr %12, i32 0, i32 20
  %14 = load i32, ptr %13, align 8, !tbaa !81
  %15 = call noundef i64 @_ZN11duckdb_zstdL24ZSTD_startingInputLengthENS_13ZSTD_format_eE(i32 noundef %14)
  %16 = load ptr, ptr %2, align 8, !tbaa !3
  %17 = getelementptr inbounds nuw %"struct.duckdb_zstd::ZSTD_DCtx_s", ptr %16, i32 0, i32 10
  store i64 %15, ptr %17, align 8, !tbaa !83
  %18 = load ptr, ptr %2, align 8, !tbaa !3
  %19 = getelementptr inbounds nuw %"struct.duckdb_zstd::ZSTD_DCtx_s", ptr %18, i32 0, i32 15
  store i32 0, ptr %19, align 4, !tbaa !84
  %20 = load ptr, ptr %2, align 8, !tbaa !3
  %21 = getelementptr inbounds nuw %"struct.duckdb_zstd::ZSTD_DCtx_s", ptr %20, i32 0, i32 12
  store i64 0, ptr %21, align 8, !tbaa !85
  %22 = load ptr, ptr %2, align 8, !tbaa !3
  %23 = getelementptr inbounds nuw %"struct.duckdb_zstd::ZSTD_DCtx_s", ptr %22, i32 0, i32 13
  store i64 0, ptr %23, align 8, !tbaa !93
  %24 = load ptr, ptr %2, align 8, !tbaa !3
  %25 = getelementptr inbounds nuw %"struct.duckdb_zstd::ZSTD_DCtx_s", ptr %24, i32 0, i32 6
  store ptr null, ptr %25, align 8, !tbaa !79
  %26 = load ptr, ptr %2, align 8, !tbaa !3
  %27 = getelementptr inbounds nuw %"struct.duckdb_zstd::ZSTD_DCtx_s", ptr %26, i32 0, i32 7
  store ptr null, ptr %27, align 8, !tbaa !113
  %28 = load ptr, ptr %2, align 8, !tbaa !3
  %29 = getelementptr inbounds nuw %"struct.duckdb_zstd::ZSTD_DCtx_s", ptr %28, i32 0, i32 8
  store ptr null, ptr %29, align 8, !tbaa !114
  %30 = load ptr, ptr %2, align 8, !tbaa !3
  %31 = getelementptr inbounds nuw %"struct.duckdb_zstd::ZSTD_DCtx_s", ptr %30, i32 0, i32 9
  store ptr null, ptr %31, align 8, !tbaa !38
  %32 = load ptr, ptr %2, align 8, !tbaa !3
  %33 = getelementptr inbounds nuw %"struct.duckdb_zstd::ZSTD_DCtx_s", ptr %32, i32 0, i32 4
  %34 = getelementptr inbounds nuw %"struct.duckdb_zstd::ZSTD_entropyDTables_t", ptr %33, i32 0, i32 3
  %35 = getelementptr inbounds [4097 x i32], ptr %34, i64 0, i64 0
  store i32 201326604, ptr %35, align 8, !tbaa !54
  %36 = load ptr, ptr %2, align 8, !tbaa !3
  %37 = getelementptr inbounds nuw %"struct.duckdb_zstd::ZSTD_DCtx_s", ptr %36, i32 0, i32 17
  store i32 0, ptr %37, align 4, !tbaa !115
  %38 = load ptr, ptr %2, align 8, !tbaa !3
  %39 = getelementptr inbounds nuw %"struct.duckdb_zstd::ZSTD_DCtx_s", ptr %38, i32 0, i32 16
  store i32 0, ptr %39, align 8, !tbaa !116
  %40 = load ptr, ptr %2, align 8, !tbaa !3
  %41 = getelementptr inbounds nuw %"struct.duckdb_zstd::ZSTD_DCtx_s", ptr %40, i32 0, i32 32
  store i32 0, ptr %41, align 8, !tbaa !98
  %42 = load ptr, ptr %2, align 8, !tbaa !3
  %43 = getelementptr inbounds nuw %"struct.duckdb_zstd::ZSTD_DCtx_s", ptr %42, i32 0, i32 14
  store i32 3, ptr %43, align 8, !tbaa !89
  %44 = load ptr, ptr %2, align 8, !tbaa !3
  %45 = getelementptr inbounds nuw %"struct.duckdb_zstd::ZSTD_DCtx_s", ptr %44, i32 0, i32 28
  store i32 1, ptr %45, align 8, !tbaa !44
  %46 = load ptr, ptr %2, align 8, !tbaa !3
  %47 = getelementptr inbounds nuw %"struct.duckdb_zstd::ZSTD_DCtx_s", ptr %46, i32 0, i32 4
  %48 = getelementptr inbounds nuw %"struct.duckdb_zstd::ZSTD_entropyDTables_t", ptr %47, i32 0, i32 4
  %49 = getelementptr inbounds [3 x i32], ptr %48, i64 0, i64 0
  call void @llvm.memcpy.p0.p0.i64(ptr align 4 %49, ptr align 4 @_ZN11duckdb_zstdL13repStartValueE, i64 12, i1 false)
  %50 = load ptr, ptr %2, align 8, !tbaa !3
  %51 = getelementptr inbounds nuw %"struct.duckdb_zstd::ZSTD_DCtx_s", ptr %50, i32 0, i32 4
  %52 = getelementptr inbounds nuw %"struct.duckdb_zstd::ZSTD_entropyDTables_t", ptr %51, i32 0, i32 0
  %53 = getelementptr inbounds [513 x %"struct.duckdb_zstd::ZSTD_seqSymbol"], ptr %52, i64 0, i64 0
  %54 = load ptr, ptr %2, align 8, !tbaa !3
  %55 = getelementptr inbounds nuw %"struct.duckdb_zstd::ZSTD_DCtx_s", ptr %54, i32 0, i32 0
  store ptr %53, ptr %55, align 8, !tbaa !117
  %56 = load ptr, ptr %2, align 8, !tbaa !3
  %57 = getelementptr inbounds nuw %"struct.duckdb_zstd::ZSTD_DCtx_s", ptr %56, i32 0, i32 4
  %58 = getelementptr inbounds nuw %"struct.duckdb_zstd::ZSTD_entropyDTables_t", ptr %57, i32 0, i32 2
  %59 = getelementptr inbounds [513 x %"struct.duckdb_zstd::ZSTD_seqSymbol"], ptr %58, i64 0, i64 0
  %60 = load ptr, ptr %2, align 8, !tbaa !3
  %61 = getelementptr inbounds nuw %"struct.duckdb_zstd::ZSTD_DCtx_s", ptr %60, i32 0, i32 1
  store ptr %59, ptr %61, align 8, !tbaa !118
  %62 = load ptr, ptr %2, align 8, !tbaa !3
  %63 = getelementptr inbounds nuw %"struct.duckdb_zstd::ZSTD_DCtx_s", ptr %62, i32 0, i32 4
  %64 = getelementptr inbounds nuw %"struct.duckdb_zstd::ZSTD_entropyDTables_t", ptr %63, i32 0, i32 1
  %65 = getelementptr inbounds [257 x %"struct.duckdb_zstd::ZSTD_seqSymbol"], ptr %64, i64 0, i64 0
  %66 = load ptr, ptr %2, align 8, !tbaa !3
  %67 = getelementptr inbounds nuw %"struct.duckdb_zstd::ZSTD_DCtx_s", ptr %66, i32 0, i32 2
  store ptr %65, ptr %67, align 8, !tbaa !119
  %68 = load ptr, ptr %2, align 8, !tbaa !3
  %69 = getelementptr inbounds nuw %"struct.duckdb_zstd::ZSTD_DCtx_s", ptr %68, i32 0, i32 4
  %70 = getelementptr inbounds nuw %"struct.duckdb_zstd::ZSTD_entropyDTables_t", ptr %69, i32 0, i32 3
  %71 = getelementptr inbounds [4097 x i32], ptr %70, i64 0, i64 0
  %72 = load ptr, ptr %2, align 8, !tbaa !3
  %73 = getelementptr inbounds nuw %"struct.duckdb_zstd::ZSTD_DCtx_s", ptr %72, i32 0, i32 3
  store ptr %71, ptr %73, align 8, !tbaa !120
  ret i64 0
}

; Function Attrs: mustprogress uwtable
define noundef i64 @_ZN11duckdb_zstd31ZSTD_decompressBegin_usingDDictEPNS_11ZSTD_DCtx_sEPKNS_12ZSTD_DDict_sE(ptr noundef %0, ptr noundef %1) #0 {
  %3 = alloca i64, align 8
  %4 = alloca ptr, align 8
  %5 = alloca ptr, align 8
  %6 = alloca ptr, align 8
  %7 = alloca i64, align 8
  %8 = alloca ptr, align 8
  %9 = alloca i64, align 8
  %10 = alloca i32, align 4
  store ptr %0, ptr %4, align 8, !tbaa !3
  store ptr %1, ptr %5, align 8, !tbaa !80
  br label %11

11:                                               ; preds = %2
  br label %12

12:                                               ; preds = %11
  %13 = load ptr, ptr %5, align 8, !tbaa !80
  %14 = icmp ne ptr %13, null
  br i1 %14, label %15, label %34

15:                                               ; preds = %12
  call void @llvm.lifetime.start.p0(i64 8, ptr %6) #12
  %16 = load ptr, ptr %5, align 8, !tbaa !80
  %17 = call noundef ptr @_ZN11duckdb_zstd22ZSTD_DDict_dictContentEPKNS_12ZSTD_DDict_sE(ptr noundef %16)
  store ptr %17, ptr %6, align 8, !tbaa !57
  call void @llvm.lifetime.start.p0(i64 8, ptr %7) #12
  %18 = load ptr, ptr %5, align 8, !tbaa !80
  %19 = call noundef i64 @_ZN11duckdb_zstd19ZSTD_DDict_dictSizeEPKNS_12ZSTD_DDict_sE(ptr noundef %18)
  store i64 %19, ptr %7, align 8, !tbaa !34
  call void @llvm.lifetime.start.p0(i64 8, ptr %8) #12
  %20 = load ptr, ptr %6, align 8, !tbaa !57
  %21 = load i64, ptr %7, align 8, !tbaa !34
  %22 = getelementptr inbounds nuw i8, ptr %20, i64 %21
  store ptr %22, ptr %8, align 8, !tbaa !33
  %23 = load ptr, ptr %4, align 8, !tbaa !3
  %24 = getelementptr inbounds nuw %"struct.duckdb_zstd::ZSTD_DCtx_s", ptr %23, i32 0, i32 9
  %25 = load ptr, ptr %24, align 8, !tbaa !38
  %26 = load ptr, ptr %8, align 8, !tbaa !33
  %27 = icmp ne ptr %25, %26
  %28 = zext i1 %27 to i32
  %29 = load ptr, ptr %4, align 8, !tbaa !3
  %30 = getelementptr inbounds nuw %"struct.duckdb_zstd::ZSTD_DCtx_s", ptr %29, i32 0, i32 33
  store i32 %28, ptr %30, align 4, !tbaa !39
  br label %31

31:                                               ; preds = %15
  br label %32

32:                                               ; preds = %31
  br label %33

33:                                               ; preds = %32
  call void @llvm.lifetime.end.p0(i64 8, ptr %8) #12
  call void @llvm.lifetime.end.p0(i64 8, ptr %7) #12
  call void @llvm.lifetime.end.p0(i64 8, ptr %6) #12
  br label %34

34:                                               ; preds = %33, %12
  br label %35

35:                                               ; preds = %34
  call void @llvm.lifetime.start.p0(i64 8, ptr %9) #12
  %36 = load ptr, ptr %4, align 8, !tbaa !3
  %37 = call noundef i64 @_ZN11duckdb_zstd20ZSTD_decompressBeginEPNS_11ZSTD_DCtx_sE(ptr noundef %36)
  store i64 %37, ptr %9, align 8, !tbaa !34
  %38 = load i64, ptr %9, align 8, !tbaa !34
  %39 = call noundef i32 @_ZN11duckdb_zstdL11ERR_isErrorEm(i64 noundef %38)
  %40 = icmp ne i32 %39, 0
  br i1 %40, label %41, label %55

41:                                               ; preds = %35
  br label %42

42:                                               ; preds = %41
  br label %43

43:                                               ; preds = %42
  br label %44

44:                                               ; preds = %43
  br label %45

45:                                               ; preds = %44
  br label %46

46:                                               ; preds = %45
  br label %47

47:                                               ; preds = %46
  br label %48

48:                                               ; preds = %47
  br label %49

49:                                               ; preds = %48
  br label %50

50:                                               ; preds = %49
  br label %51

51:                                               ; preds = %50
  br label %52

52:                                               ; preds = %51
  br label %53

53:                                               ; preds = %52
  %54 = load i64, ptr %9, align 8, !tbaa !34
  store i64 %54, ptr %3, align 8
  store i32 1, ptr %10, align 4
  br label %56

55:                                               ; preds = %35
  store i32 0, ptr %10, align 4
  br label %56

56:                                               ; preds = %55, %53
  call void @llvm.lifetime.end.p0(i64 8, ptr %9) #12
  %57 = load i32, ptr %10, align 4
  switch i32 %57, label %68 [
    i32 0, label %58
    i32 1, label %66
  ]

58:                                               ; preds = %56
  br label %59

59:                                               ; preds = %58
  %60 = load ptr, ptr %5, align 8, !tbaa !80
  %61 = icmp ne ptr %60, null
  br i1 %61, label %62, label %65

62:                                               ; preds = %59
  %63 = load ptr, ptr %4, align 8, !tbaa !3
  %64 = load ptr, ptr %5, align 8, !tbaa !80
  call void @_ZN11duckdb_zstd24ZSTD_copyDDictParametersEPNS_11ZSTD_DCtx_sEPKNS_12ZSTD_DDict_sE(ptr noundef %63, ptr noundef %64)
  br label %65

65:                                               ; preds = %62, %59
  store i64 0, ptr %3, align 8
  br label %66

66:                                               ; preds = %65, %56
  %67 = load i64, ptr %3, align 8
  ret i64 %67

68:                                               ; preds = %56
  unreachable
}