; Function Attrs: mustprogress uwtable
define noundef i64 @_ZN11duckdb_zstd31ZSTD_decompressBegin_usingDDictEPNS_11ZSTD_DCtx_sEPKNS_12ZSTD_DDict_sE(ptr noundef %0, ptr noundef %1) local_unnamed_addr #0 {
  %.not = icmp eq ptr %1, null
  br i1 %.not, label %12, label %3

3:                                                ; preds = %2
  %4 = tail call noundef ptr @_ZN11duckdb_zstd22ZSTD_DDict_dictContentEPKNS_12ZSTD_DDict_sE(ptr noundef nonnull %1)
  %5 = tail call noundef i64 @_ZN11duckdb_zstd19ZSTD_DDict_dictSizeEPKNS_12ZSTD_DDict_sE(ptr noundef nonnull %1)
  %6 = getelementptr inbounds nuw i8, ptr %4, i64 %5
  %7 = getelementptr inbounds nuw i8, ptr %0, i64 29912
  %8 = load ptr, ptr %7, align 8, !tbaa !31
  %9 = icmp ne ptr %8, %6
  %10 = zext i1 %9 to i32
  %11 = getelementptr inbounds nuw i8, ptr %0, i64 30204
  store i32 %10, ptr %11, align 4, !tbaa !32
  br label %12

12:                                               ; preds = %2, %3
  %.not.i = icmp eq ptr @_ZN11duckdb_zstd27ZSTD_trace_decompress_beginEPKNS_11ZSTD_DCtx_sE, null
  br i1 %.not.i, label %_ZN11duckdb_zstd20ZSTD_decompressBeginEPNS_11ZSTD_DCtx_sE.exit, label %13

13:                                               ; preds = %12
  %14 = tail call noundef i64 @_ZN11duckdb_zstd27ZSTD_trace_decompress_beginEPKNS_11ZSTD_DCtx_sE(ptr noundef %0)
  br label %_ZN11duckdb_zstd20ZSTD_decompressBeginEPNS_11ZSTD_DCtx_sE.exit

_ZN11duckdb_zstd20ZSTD_decompressBeginEPNS_11ZSTD_DCtx_sE.exit: ; preds = %12, %13
  %15 = phi i64 [ %14, %13 ], [ 0, %12 ]
  %16 = getelementptr inbounds nuw i8, ptr %0, i64 95968
  store i64 %15, ptr %16, align 8, !tbaa !88
  %17 = getelementptr inbounds nuw i8, ptr %0, i64 30104
  %18 = load i32, ptr %17, align 8, !tbaa !42
  %19 = icmp eq i32 %18, 0
  %20 = select i1 %19, i64 5, i64 1
  %21 = getelementptr inbounds nuw i8, ptr %0, i64 29920
  store i64 %20, ptr %21, align 8, !tbaa !89
  %22 = getelementptr inbounds nuw i8, ptr %0, i64 29996
  store i32 0, ptr %22, align 4, !tbaa !90
  %23 = getelementptr inbounds nuw i8, ptr %0, i64 29976
  %24 = getelementptr inbounds nuw i8, ptr %0, i64 29888
  %25 = getelementptr inbounds nuw i8, ptr %0, i64 32
  %26 = getelementptr inbounds nuw i8, ptr %0, i64 10296
  tail call void @llvm.memset.p0.i64(ptr noundef nonnull align 8 dereferenceable(32) %24, i8 0, i64 32, i1 false)
  tail call void @llvm.memset.p0.i64(ptr noundef nonnull align 8 dereferenceable(16) %23, i8 0, i64 16, i1 false)
  store i32 201326604, ptr %26, align 8, !tbaa !55
  %27 = getelementptr inbounds nuw i8, ptr %0, i64 30004
  store i32 0, ptr %27, align 4, !tbaa !91
  %28 = getelementptr inbounds nuw i8, ptr %0, i64 30000
  store i32 0, ptr %28, align 8, !tbaa !92
  %29 = getelementptr inbounds nuw i8, ptr %0, i64 30200
  store i32 0, ptr %29, align 8, !tbaa !93
  %30 = getelementptr inbounds nuw i8, ptr %0, i64 29992
  store i32 3, ptr %30, align 8, !tbaa !94
  %31 = getelementptr inbounds nuw i8, ptr %0, i64 30176
  store i32 1, ptr %31, align 8, !tbaa !36
  %32 = getelementptr inbounds nuw i8, ptr %0, i64 26684
  tail call void @llvm.memcpy.p0.p0.i64(ptr noundef nonnull align 4 dereferenceable(12) %32, ptr noundef nonnull align 4 dereferenceable(12) @_ZN11duckdb_zstdL13repStartValueE, i64 12, i1 false)
  store ptr %25, ptr %0, align 8, !tbaa !95
  %33 = getelementptr inbounds nuw i8, ptr %0, i64 6192
  %34 = getelementptr inbounds nuw i8, ptr %0, i64 8
  store ptr %33, ptr %34, align 8, !tbaa !96
  %35 = getelementptr inbounds nuw i8, ptr %0, i64 4136
  %36 = getelementptr inbounds nuw i8, ptr %0, i64 16
  store ptr %35, ptr %36, align 8, !tbaa !97
  %37 = getelementptr inbounds nuw i8, ptr %0, i64 24
  store ptr %26, ptr %37, align 8, !tbaa !98
  br i1 %.not, label %39, label %38

38:                                               ; preds = %_ZN11duckdb_zstd20ZSTD_decompressBeginEPNS_11ZSTD_DCtx_sE.exit
  tail call void @_ZN11duckdb_zstd24ZSTD_copyDDictParametersEPNS_11ZSTD_DCtx_sEPKNS_12ZSTD_DDict_sE(ptr noundef nonnull %0, ptr noundef nonnull %1)
  br label %39

39:                                               ; preds = %_ZN11duckdb_zstd20ZSTD_decompressBeginEPNS_11ZSTD_DCtx_sE.exit, %38
  ret i64 0
}